; ModuleID = '49/1363.cpp'
source_filename = "49/1363.cpp"
target datalayout = "e-m:e-p270:32:32-p271:32:32-p272:64:64-i64:64-f80:128-n8:16:32:64-S128"
target triple = "x86_64-pc-linux-gnu"

%"class.std::ios_base::Init" = type { i8 }
%"class.std::basic_istream" = type { i32 (...)**, i64, %"class.std::basic_ios" }
%"class.std::basic_ios" = type { %"class.std::ios_base", %"class.std::basic_ostream"*, i8, i8, %"class.std::basic_streambuf"*, %"class.std::ctype"*, %"class.std::num_put"*, %"class.std::num_get"* }
%"class.std::ios_base" = type { i32 (...)**, i64, i64, i32, i32, i32, %"struct.std::ios_base::_Callback_list"*, %"struct.std::ios_base::_Words", [8 x %"struct.std::ios_base::_Words"], i32, %"struct.std::ios_base::_Words"*, %"class.std::locale" }
%"struct.std::ios_base::_Callback_list" = type { %"struct.std::ios_base::_Callback_list"*, void (i32, %"class.std::ios_base"*, i32)*, i32, i32 }
%"struct.std::ios_base::_Words" = type { i8*, i64 }
%"class.std::locale" = type { %"class.std::locale::_Impl"* }
%"class.std::locale::_Impl" = type { i32, %"class.std::locale::facet"**, i64, %"class.std::locale::facet"**, i8** }
%"class.std::locale::facet" = type <{ i32 (...)**, i32, [4 x i8] }>
%"class.std::basic_ostream" = type { i32 (...)**, %"class.std::basic_ios" }
%"class.std::basic_streambuf" = type { i32 (...)**, i8*, i8*, i8*, i8*, i8*, i8*, %"class.std::locale" }
%"class.std::ctype" = type <{ %"class.std::locale::facet.base", [4 x i8], %struct.__locale_struct*, i8, [7 x i8], i32*, i32*, i16*, i8, [256 x i8], [256 x i8], i8, [6 x i8] }>
%"class.std::locale::facet.base" = type <{ i32 (...)**, i32 }>
%struct.__locale_struct = type { [13 x %struct.__locale_data*], i16*, i32*, i32*, [13 x i8*] }
%struct.__locale_data = type opaque
%"class.std::num_put" = type { %"class.std::locale::facet.base", [4 x i8] }
%"class.std::num_get" = type { %"class.std::locale::facet.base", [4 x i8] }

@_ZStL8__ioinit = internal global %"class.std::ios_base::Init" zeroinitializer, align 1
@__dso_handle = external hidden global i8
@_ZSt3cin = external dso_local global %"class.std::basic_istream", align 8
@_ZSt4cout = external dso_local global %"class.std::basic_ostream", align 8
@llvm.global_ctors = appending global [1 x { i32, void ()*, i8* }] [{ i32, void ()*, i8* } { i32 65535, void ()* @_GLOBAL__sub_I_1363.cpp, i8* null }]

; Function Attrs: noinline uwtable
define internal void @__cxx_global_var_init() #0 section ".text.startup" {
  call void @_ZNSt8ios_base4InitC1Ev(%"class.std::ios_base::Init"* @_ZStL8__ioinit)
  %1 = call i32 @__cxa_atexit(void (i8*)* bitcast (void (%"class.std::ios_base::Init"*)* @_ZNSt8ios_base4InitD1Ev to void (i8*)*), i8* getelementptr inbounds (%"class.std::ios_base::Init", %"class.std::ios_base::Init"* @_ZStL8__ioinit, i32 0, i32 0), i8* @__dso_handle) #3
  ret void
}

declare dso_local void @_ZNSt8ios_base4InitC1Ev(%"class.std::ios_base::Init"*) unnamed_addr #1

; Function Attrs: nounwind
declare dso_local void @_ZNSt8ios_base4InitD1Ev(%"class.std::ios_base::Init"*) unnamed_addr #2

; Function Attrs: nounwind
declare dso_local i32 @__cxa_atexit(void (i8*)*, i8*, i8*) #3

; Function Attrs: noinline nounwind uwtable
define dso_local i32 @_Z3huiPc(i8* %0) #4 {
  %2 = alloca i32, align 4
  %3 = alloca i8*, align 8
  %4 = alloca i32, align 4
  store i8* %0, i8** %3, align 8
  store i32 0, i32* %4, align 4
  br label %5

5:                                                ; preds = %31, %1
  %6 = load i32, i32* %4, align 4
  %7 = sext i32 %6 to i64
  %8 = load i8*, i8** %3, align 8
  %9 = call i64 @strlen(i8* %8) #8
  %10 = icmp ult i64 %7, %9
  br i1 %10, label %11, label %34

11:                                               ; preds = %5
  %12 = load i8*, i8** %3, align 8
  %13 = load i32, i32* %4, align 4
  %14 = sext i32 %13 to i64
  %15 = getelementptr inbounds i8, i8* %12, i64 %14
  %16 = load i8, i8* %15, align 1
  %17 = sext i8 %16 to i32
  %18 = load i8*, i8** %3, align 8
  %19 = load i8*, i8** %3, align 8
  %20 = call i64 @strlen(i8* %19) #8
  %21 = sub i64 %20, 1
  %22 = load i32, i32* %4, align 4
  %23 = sext i32 %22 to i64
  %24 = sub i64 %21, %23
  %25 = getelementptr inbounds i8, i8* %18, i64 %24
  %26 = load i8, i8* %25, align 1
  %27 = sext i8 %26 to i32
  %28 = icmp ne i32 %17, %27
  br i1 %28, label %29, label %30

29:                                               ; preds = %11
  store i32 0, i32* %2, align 4
  br label %42

30:                                               ; preds = %11
  br label %31

31:                                               ; preds = %30
  %32 = load i32, i32* %4, align 4
  %33 = add nsw i32 %32, 1
  store i32 %33, i32* %4, align 4
  br label %5

34:                                               ; preds = %5
  %35 = load i32, i32* %4, align 4
  %36 = sext i32 %35 to i64
  %37 = load i8*, i8** %3, align 8
  %38 = call i64 @strlen(i8* %37) #8
  %39 = icmp uge i64 %36, %38
  br i1 %39, label %40, label %41

40:                                               ; preds = %34
  store i32 1, i32* %2, align 4
  br label %42

41:                                               ; preds = %34
  call void @llvm.trap()
  unreachable

42:                                               ; preds = %40, %29
  %43 = load i32, i32* %2, align 4
  ret i32 %43
}

; Function Attrs: nounwind readonly
declare dso_local i64 @strlen(i8*) #5

; Function Attrs: cold noreturn nounwind
declare void @llvm.trap() #6

; Function Attrs: noinline norecurse uwtable
define dso_local i32 @main() #7 {
  %1 = alloca i32, align 4
  %2 = alloca i32, align 4
  %3 = alloca i32, align 4
  %4 = alloca i32, align 4
  %5 = alloca [501 x i8], align 16
  %6 = alloca [501 x i8], align 16
  store i32 0, i32* %1, align 4
  %7 = getelementptr inbounds [501 x i8], [501 x i8]* %5, i64 0, i64 0
  %8 = call dereferenceable(280) %"class.std::basic_istream"* @_ZNSi7getlineEPcl(%"class.std::basic_istream"* @_ZSt3cin, i8* %7, i64 501)
  store i32 2, i32* %4, align 4
  br label %9

9:                                                ; preds = %59, %0
  %10 = load i32, i32* %4, align 4
  %11 = sext i32 %10 to i64
  %12 = getelementptr inbounds [501 x i8], [501 x i8]* %5, i64 0, i64 0
  %13 = call i64 @strlen(i8* %12) #8
  %14 = icmp ule i64 %11, %13
  br i1 %14, label %15, label %62

15:                                               ; preds = %9
  store i32 0, i32* %2, align 4
  br label %16

16:                                               ; preds = %55, %15
  %17 = load i32, i32* %2, align 4
  %18 = load i32, i32* %4, align 4
  %19 = add nsw i32 %17, %18
  %20 = sub nsw i32 %19, 1
  %21 = sext i32 %20 to i64
  %22 = getelementptr inbounds [501 x i8], [501 x i8]* %5, i64 0, i64 0
  %23 = call i64 @strlen(i8* %22) #8
  %24 = icmp ult i64 %21, %23
  br i1 %24, label %25, label %58

25:                                               ; preds = %16
  store i32 0, i32* %3, align 4
  br label %26

26:                                               ; preds = %43, %25
  %27 = load i32, i32* %3, align 4
  %28 = load i32, i32* %4, align 4
  %29 = icmp slt i32 %27, %28
  br i1 %29, label %30, label %46

30:                                               ; preds = %26
  %31 = load i32, i32* %2, align 4
  %32 = load i32, i32* %3, align 4
  %33 = add nsw i32 %31, %32
  %34 = sext i32 %33 to i64
  %35 = getelementptr inbounds [501 x i8], [501 x i8]* %5, i64 0, i64 %34
  %36 = load i8, i8* %35, align 1
  %37 = load i32, i32* %3, align 4
  %38 = sext i32 %37 to i64
  %39 = getelementptr inbounds [501 x i8], [501 x i8]* %6, i64 0, i64 %38
  store i8 %36, i8* %39, align 1
  %40 = load i32, i32* %4, align 4
  %41 = sext i32 %40 to i64
  %42 = getelementptr inbounds [501 x i8], [501 x i8]* %6, i64 0, i64 %41
  store i8 0, i8* %42, align 1
  br label %43

43:                                               ; preds = %30
  %44 = load i32, i32* %3, align 4
  %45 = add nsw i32 %44, 1
  store i32 %45, i32* %3, align 4
  br label %26

46:                                               ; preds = %26
  %47 = getelementptr inbounds [501 x i8], [501 x i8]* %6, i64 0, i64 0
  %48 = call i32 @_Z3huiPc(i8* %47)
  %49 = icmp eq i32 %48, 1
  br i1 %49, label %50, label %54

50:                                               ; preds = %46
  %51 = getelementptr inbounds [501 x i8], [501 x i8]* %6, i64 0, i64 0
  %52 = call dereferenceable(272) %"class.std::basic_ostream"* @_ZStlsISt11char_traitsIcEERSt13basic_ostreamIcT_ES5_PKc(%"class.std::basic_ostream"* dereferenceable(272) @_ZSt4cout, i8* %51)
  %53 = call dereferenceable(272) %"class.std::basic_ostream"* @_ZNSolsEPFRSoS_E(%"class.std::basic_ostream"* %52, %"class.std::basic_ostream"* (%"class.std::basic_ostream"*)* @_ZSt4endlIcSt11char_traitsIcEERSt13basic_ostreamIT_T0_ES6_)
  br label %54

54:                                               ; preds = %50, %46
  br label %55

55:                                               ; preds = %54
  %56 = load i32, i32* %2, align 4
  %57 = add nsw i32 %56, 1
  store i32 %57, i32* %2, align 4
  br label %16

58:                                               ; preds = %16
  br label %59

59:                                               ; preds = %58
  %60 = load i32, i32* %4, align 4
  %61 = add nsw i32 %60, 1
  store i32 %61, i32* %4, align 4
  br label %9

62:                                               ; preds = %9
  ret i32 0
}

declare dso_local dereferenceable(280) %"class.std::basic_istream"* @_ZNSi7getlineEPcl(%"class.std::basic_istream"*, i8*, i64) #1

declare dso_local dereferenceable(272) %"class.std::basic_ostream"* @_ZStlsISt11char_traitsIcEERSt13basic_ostreamIcT_ES5_PKc(%"class.std::basic_ostream"* dereferenceable(272), i8*) #1

declare dso_local dereferenceable(272) %"class.std::basic_ostream"* @_ZNSolsEPFRSoS_E(%"class.std::basic_ostream"*, %"class.std::basic_ostream"* (%"class.std::basic_ostream"*)*) #1

declare dso_local dereferenceable(272) %"class.std::basic_ostream"* @_ZSt4endlIcSt11char_traitsIcEERSt13basic_ostreamIT_T0_ES6_(%"class.std::basic_ostream"* dereferenceable(272)) #1

; Function Attrs: noinline uwtable
define internal void @_GLOBAL__sub_I_1363.cpp() #0 section ".text.startup" {
  call void @__cxx_global_var_init()
  ret void
}


!llvm.module.flags = !{!0}
!llvm.ident = !{!1}

!0 = !{i32 1, !"wchar_size", i32 4}
!1 = !{!"clang version 10.0.0-4ubuntu1 "}
